target datalayout = "e-m:e-p270:32:32-p271:32:32-p272:64:64-i64:64-i128:128-f80:128-n8:16:32:64-S128"
target triple = "x86_64-pc-linux-gnu"

@.str.7 = private unnamed_addr constant [32 x i8] c"%s: pthread_rwlock_wrlock(): %m\00", align 1
@externally_locked = internal global i8 0, align 1
@context_lock = internal global { { i32, i32, i32, i32, i32, i32, i32, i32, i8, [7 x i8], i64, i32, [4 x i8] } } zeroinitializer, align 8
@.str.44 = private unnamed_addr constant [30 x i8] c"%s: pthread_rwlock_init(): %m\00", align 1
@__func__._atfork_child = private unnamed_addr constant [14 x i8] c"_atfork_child\00", align 1

; Function Attrs: nounwind uwtable
define internal void @_atfork_child() #0 {
  %1 = alloca i32, align 4
  %2 = alloca i32, align 4
  br label %3

3:                                                ; preds = %0
  call void @llvm.lifetime.start.p0(i64 4, ptr %1) #6
  %4 = call i32 @pthread_rwlock_init(ptr noundef @context_lock, ptr noundef null) #6
  store i32 %4, ptr %1, align 4
  %5 = load i32, ptr %1, align 4
  %6 = icmp ne i32 %5, 0
  br i1 %6, label %7, label %10

7:                                                ; preds = %3
  %8 = load i32, ptr %1, align 4
  %9 = call ptr @__errno_location() #8
  store i32 %8, ptr %9, align 4
  call void (ptr, ...) @fatal_abort(ptr noundef @.str.44, ptr noundef @__func__._atfork_child) #7
  unreachable

10:                                               ; preds = %3
  call void @llvm.lifetime.end.p0(i64 4, ptr %1) #6
  br label %11

11:                                               ; preds = %10
  %12 = load i8, ptr @externally_locked, align 1, !range !11, !noundef !12
  %13 = trunc i8 %12 to i1
  br i1 %13, label %14, label %24

14:                                               ; preds = %11
  br label %15

15:                                               ; preds = %14
  call void @llvm.lifetime.start.p0(i64 4, ptr %2) #6
  %16 = call i32 @pthread_rwlock_wrlock(ptr noundef @context_lock) #6
  store i32 %16, ptr %2, align 4
  %17 = load i32, ptr %2, align 4
  %18 = icmp ne i32 %17, 0
  br i1 %18, label %19, label %22

19:                                               ; preds = %15
  %20 = load i32, ptr %2, align 4
  %21 = call ptr @__errno_location() #8
  store i32 %20, ptr %21, align 4
  call void (ptr, ...) @fatal_abort(ptr noundef @.str.7, ptr noundef @__func__._atfork_child) #7
  unreachable

22:                                               ; preds = %15
  call void @llvm.lifetime.end.p0(i64 4, ptr %2) #6
  br label %23

23:                                               ; preds = %22
  br label %24

24:                                               ; preds = %23, %11
  ret void
}