; Function Attrs: nounwind uwtable
define internal void @_atfork_child() #2 {
  %1 = tail call i32 @pthread_rwlock_init(ptr noundef nonnull @context_lock, ptr noundef null) #12
  %.not = icmp eq i32 %1, 0
  br i1 %.not, label %4, label %2

2:                                                ; preds = %0
  %3 = tail call ptr @__errno_location() #13
  store i32 %1, ptr %3, align 4
  tail call void (ptr, ...) @fatal_abort(ptr noundef nonnull @.str.44, ptr noundef nonnull @__func__._atfork_child) #11
  unreachable

4:                                                ; preds = %0
  %.b5 = load i1, ptr @externally_locked, align 1
  br i1 %.b5, label %5, label %9

5:                                                ; preds = %4
  %6 = tail call i32 @pthread_rwlock_wrlock(ptr noundef nonnull @context_lock) #12
  %.not6 = icmp eq i32 %6, 0
  br i1 %.not6, label %9, label %7

7:                                                ; preds = %5
  %8 = tail call ptr @__errno_location() #13
  store i32 %6, ptr %8, align 4
  tail call void (ptr, ...) @fatal_abort(ptr noundef nonnull @.str.7, ptr noundef nonnull @__func__._atfork_child) #11
  unreachable

9:                                                ; preds = %5, %4
  ret void
}